; Function Attrs: nounwind uwtable
define ptr @l___private_Lean_ToExpr_0__Lean_List_toExprAux___at___aux__Lean__Util__SearchPath______elabRules__termCompile__time__search__path_x25__1___spec__2(ptr noundef %0, ptr noundef %1, ptr noundef %2) local_unnamed_addr #0 {
  %4 = ptrtoint ptr %2 to i64
  %5 = and i64 %4, 1
  %.not.i27 = icmp eq i64 %5, 0
  br i1 %.not.i27, label %9, label %6

6:                                                ; preds = %3
  %7 = lshr i64 %4, 1
  %8 = trunc i64 %7 to i32
  br label %lean_obj_tag.exit

9:                                                ; preds = %3
  %10 = getelementptr i8, ptr %2, i64 4
  %.val.i = load i32, ptr %10, align 4
  %11 = lshr i32 %.val.i, 24
  br label %lean_obj_tag.exit

lean_obj_tag.exit:                                ; preds = %6, %9
  %.0.i = phi i32 [ %8, %6 ], [ %11, %9 ]
  %12 = icmp eq i32 %.0.i, 0
  br i1 %12, label %13, label %31

13:                                               ; preds = %lean_obj_tag.exit
  %14 = ptrtoint ptr %1 to i64
  %15 = and i64 %14, 1
  %.not42 = icmp eq i64 %15, 0
  br i1 %.not42, label %16, label %lean_dec.exit

16:                                               ; preds = %13
  %17 = load i32, ptr %1, align 4, !tbaa !8
  %18 = icmp sgt i32 %17, 1
  br i1 %18, label %19, label %21, !prof !13

19:                                               ; preds = %16
  %20 = add nsw i32 %17, -1
  store i32 %20, ptr %1, align 4, !tbaa !8
  br label %lean_dec.exit

21:                                               ; preds = %16
  %.not.i25 = icmp eq i32 %17, 0
  br i1 %.not.i25, label %lean_dec.exit, label %22

22:                                               ; preds = %21
  tail call void @lean_dec_ref_cold(ptr noundef nonnull %1) #3
  br label %lean_dec.exit

lean_dec.exit:                                    ; preds = %22, %21, %19, %13
  %23 = ptrtoint ptr %0 to i64
  %24 = and i64 %23, 1
  %.not43 = icmp eq i64 %24, 0
  br i1 %.not43, label %25, label %common.ret44

25:                                               ; preds = %lean_dec.exit
  %.val.i28 = load i32, ptr %0, align 4, !tbaa !8
  %26 = icmp sgt i32 %.val.i28, 0
  br i1 %26, label %27, label %29, !prof !13

27:                                               ; preds = %25
  %28 = add nuw i32 %.val.i28, 1
  store i32 %28, ptr %0, align 4, !tbaa !8
  br label %common.ret44

29:                                               ; preds = %25
  %.not.i29 = icmp eq i32 %.val.i28, 0
  br i1 %.not.i29, label %common.ret44, label %30

30:                                               ; preds = %29
  tail call void @lean_inc_ref_cold(ptr noundef nonnull %0) #3
  br label %common.ret44

31:                                               ; preds = %lean_obj_tag.exit
  %32 = getelementptr inbounds nuw i8, ptr %2, i64 8
  %33 = load ptr, ptr %32, align 8, !tbaa !4
  %34 = ptrtoint ptr %33 to i64
  %35 = and i64 %34, 1
  %.not = icmp eq i64 %35, 0
  br i1 %.not, label %36, label %lean_inc.exit22

36:                                               ; preds = %31
  %.val.i30 = load i32, ptr %33, align 4, !tbaa !8
  %37 = icmp sgt i32 %.val.i30, 0
  br i1 %37, label %38, label %40, !prof !13

38:                                               ; preds = %36
  %39 = add nuw i32 %.val.i30, 1
  store i32 %39, ptr %33, align 4, !tbaa !8
  br label %lean_inc.exit22

40:                                               ; preds = %36
  %.not.i31 = icmp eq i32 %.val.i30, 0
  br i1 %.not.i31, label %lean_inc.exit22, label %41

41:                                               ; preds = %40
  tail call void @lean_inc_ref_cold(ptr noundef nonnull %33) #3
  br label %lean_inc.exit22

lean_inc.exit22:                                  ; preds = %41, %40, %38, %31
  %42 = getelementptr inbounds nuw i8, ptr %2, i64 16
  %43 = load ptr, ptr %42, align 8, !tbaa !4
  %44 = ptrtoint ptr %43 to i64
  %45 = and i64 %44, 1
  %.not39 = icmp eq i64 %45, 0
  br i1 %.not39, label %46, label %lean_inc.exit23

46:                                               ; preds = %lean_inc.exit22
  %.val.i33 = load i32, ptr %43, align 4, !tbaa !8
  %47 = icmp sgt i32 %.val.i33, 0
  br i1 %47, label %48, label %50, !prof !13

48:                                               ; preds = %46
  %49 = add nuw i32 %.val.i33, 1
  store i32 %49, ptr %43, align 4, !tbaa !8
  br label %lean_inc.exit23

50:                                               ; preds = %46
  %.not.i34 = icmp eq i32 %.val.i33, 0
  br i1 %.not.i34, label %lean_inc.exit23, label %51

51:                                               ; preds = %50
  tail call void @lean_inc_ref_cold(ptr noundef nonnull %43) #3
  br label %lean_inc.exit23

lean_inc.exit23:                                  ; preds = %51, %50, %48, %lean_inc.exit22
  br i1 %.not.i27, label %52, label %lean_dec.exit21

52:                                               ; preds = %lean_inc.exit23
  %53 = load i32, ptr %2, align 4, !tbaa !8
  %54 = icmp sgt i32 %53, 1
  br i1 %54, label %55, label %57, !prof !13

55:                                               ; preds = %52
  %56 = add nsw i32 %53, -1
  store i32 %56, ptr %2, align 4, !tbaa !8
  br label %lean_dec.exit21

57:                                               ; preds = %52
  %.not.i = icmp eq i32 %53, 0
  br i1 %.not.i, label %lean_dec.exit21, label %58

58:                                               ; preds = %57
  tail call void @lean_dec_ref_cold(ptr noundef nonnull %2) #3
  br label %lean_dec.exit21

lean_dec.exit21:                                  ; preds = %58, %57, %55, %lean_inc.exit23
  %59 = tail call ptr @l_Lean_mkStrLit(ptr noundef %33) #3
  %60 = load ptr, ptr @l___private_Lean_ToExpr_0__Lean_List_toExprAux___at___aux__Lean__Util__SearchPath______elabRules__termCompile__time__search__path_x25__1___spec__2___closed__5, align 8, !tbaa !4
  %61 = tail call ptr @l_Lean_Expr_app___override(ptr noundef %60, ptr noundef %59) #3
  %62 = ptrtoint ptr %1 to i64
  %63 = and i64 %62, 1
  %.not41 = icmp eq i64 %63, 0
  br i1 %.not41, label %64, label %lean_inc.exit24

64:                                               ; preds = %lean_dec.exit21
  %.val.i36 = load i32, ptr %1, align 4, !tbaa !8
  %65 = icmp sgt i32 %.val.i36, 0
  br i1 %65, label %66, label %68, !prof !13

66:                                               ; preds = %64
  %67 = add nuw i32 %.val.i36, 1
  store i32 %67, ptr %1, align 4, !tbaa !8
  br label %lean_inc.exit24

68:                                               ; preds = %64
  %.not.i37 = icmp eq i32 %.val.i36, 0
  br i1 %.not.i37, label %lean_inc.exit24, label %69

69:                                               ; preds = %68
  tail call void @lean_inc_ref_cold(ptr noundef nonnull %1) #3
  br label %lean_inc.exit24

common.ret44:                                     ; preds = %lean_dec.exit, %27, %29, %30, %lean_inc.exit24
  %common.ret44.op = phi ptr [ %71, %lean_inc.exit24 ], [ %0, %30 ], [ %0, %29 ], [ %0, %27 ], [ %0, %lean_dec.exit ]
  ret ptr %common.ret44.op

lean_inc.exit24:                                  ; preds = %69, %68, %66, %lean_dec.exit21
  %70 = tail call ptr @l___private_Lean_ToExpr_0__Lean_List_toExprAux___at___aux__Lean__Util__SearchPath______elabRules__termCompile__time__search__path_x25__1___spec__2(ptr noundef %0, ptr noundef %1, ptr noundef %43)
  %71 = tail call ptr @l_Lean_mkAppB(ptr noundef %1, ptr noundef %61, ptr noundef %70) #3
  br label %common.ret44
}